target datalayout = "e-m:e-p270:32:32-p271:32:32-p272:64:64-i64:64-i128:128-f80:128-n8:16:32:64-S128"
target triple = "x86_64-pc-linux-gnu"

%struct.ARKodeMemRec = type { ptr, double, ptr, i32, i32, double, double, ptr, i32, double, ptr, i32, i32, ptr, ptr, i32, ptr, ptr, i32, ptr, ptr, ptr, ptr, ptr, ptr, ptr, ptr, ptr, ptr, ptr, ptr, ptr, ptr, ptr, i32, ptr, ptr, i32, ptr, i32, ptr, ptr, ptr, ptr, ptr, ptr, ptr, ptr, ptr, ptr, ptr, ptr, ptr, ptr, ptr, ptr, ptr, ptr, ptr, ptr, ptr, ptr, ptr, ptr, ptr, ptr, i32, ptr, ptr, ptr, ptr, ptr, ptr, ptr, i32, ptr, ptr, ptr, i32, ptr, ptr, ptr, ptr, ptr, ptr, ptr, i32, i32, i32, i32, double, double, double, double, double, double, double, double, double, double, i32, ptr, i64, i32, i32, i32, i32, i64, i64, i32, i64, i64, i64, i64, i64, i64, i64, double, double, double, double, double, i32, double, double, i32, i32, i32, i32, i32, i32, i32, i32, ptr, i32, ptr, ptr, ptr, ptr, i32, i32, i32 }
%struct._generic_SUNLinearSolver = type { ptr, ptr, ptr }
%struct._generic_SUNLinearSolver_Ops = type { ptr, ptr, ptr, ptr, ptr, ptr, ptr, ptr, ptr, ptr, ptr, ptr, ptr, ptr, ptr }
%struct._generic_N_Vector = type { ptr, ptr, ptr }
%struct._generic_N_Vector_Ops = type { ptr, ptr, ptr, ptr, ptr, ptr, ptr, ptr, ptr, ptr, ptr, ptr, ptr, ptr, ptr, ptr, ptr, ptr, ptr, ptr, ptr, ptr, ptr, ptr, ptr, ptr, ptr, ptr, ptr, ptr, ptr, ptr, ptr, ptr, ptr, ptr, ptr, ptr, ptr, ptr, ptr, ptr, ptr, ptr, ptr, ptr, ptr, ptr, ptr, ptr, ptr, ptr, ptr, ptr, ptr, ptr }
%struct.ARKLsMemRec = type { i32, i32, i32, ptr, ptr, i32, i32, double, double, ptr, ptr, ptr, ptr, ptr, ptr, ptr, i64, double, i64, i64, i64, i64, i64, i64, i64, i64, i64, double, ptr, ptr, ptr, ptr, i32, ptr, ptr, ptr, ptr, i32, ptr, ptr, i32 }
%struct._generic_SUNMatrix = type { ptr, ptr, ptr }
%struct._generic_SUNMatrix_Ops = type { ptr, ptr, ptr, ptr, ptr, ptr, ptr, ptr, ptr, ptr }

@.str = private unnamed_addr constant [118 x i8] c"generated/home/dtcxzyw/WorkSpace/Projects/compilers/llvm-opt-benchmark/bench/sundials/sundials/src/arkode/arkode_ls.c\00", align 1
@.str.1 = private unnamed_addr constant [27 x i8] c"arkode_mem = NULL illegal.\00", align 1
@__func__.ARKodeGetLinWorkSpace = private unnamed_addr constant [22 x i8] c"ARKodeGetLinWorkSpace\00", align 1
@.str.64 = private unnamed_addr constant [30 x i8] c"Linear solver memory is NULL.\00", align 1

; Function Attrs: nounwind uwtable
define i32 @arkLs_AccessLMem(ptr noundef %0, ptr noundef %1, ptr noundef %2) #0 {
  %4 = alloca i32, align 4
  %5 = alloca ptr, align 8
  %6 = alloca ptr, align 8
  %7 = alloca ptr, align 8
  %8 = alloca ptr, align 8
  %9 = alloca i32, align 4
  store ptr %0, ptr %5, align 8, !tbaa !11
  store ptr %1, ptr %6, align 8, !tbaa !155
  store ptr %2, ptr %7, align 8, !tbaa !157
  call void @llvm.lifetime.start.p0(i64 8, ptr %8) #7
  %10 = load ptr, ptr %5, align 8, !tbaa !11
  %11 = getelementptr inbounds nuw %struct.ARKodeMemRec, ptr %10, i32 0, i32 42
  %12 = load ptr, ptr %11, align 8, !tbaa !41
  %13 = load ptr, ptr %5, align 8, !tbaa !11
  %14 = call ptr %12(ptr noundef %13)
  store ptr %14, ptr %8, align 8, !tbaa !3
  %15 = load ptr, ptr %8, align 8, !tbaa !3
  %16 = icmp eq ptr %15, null
  br i1 %16, label %17, label %20

17:                                               ; preds = %3
  %18 = load ptr, ptr %5, align 8, !tbaa !11
  %19 = load ptr, ptr %6, align 8, !tbaa !155
  call void (ptr, i32, i32, ptr, ptr, ptr, ...) @arkProcessError(ptr noundef %18, i32 noundef -2, i32 noundef 4072, ptr noundef %19, ptr noundef @.str, ptr noundef @.str.64)
  store i32 -2, ptr %4, align 4
  store i32 1, ptr %9, align 4
  br label %23

20:                                               ; preds = %3
  %21 = load ptr, ptr %8, align 8, !tbaa !3
  %22 = load ptr, ptr %7, align 8, !tbaa !157
  store ptr %21, ptr %22, align 8, !tbaa !44
  store i32 0, ptr %4, align 4
  store i32 1, ptr %9, align 4
  br label %23

23:                                               ; preds = %20, %17
  call void @llvm.lifetime.end.p0(i64 8, ptr %8) #7
  %24 = load i32, ptr %4, align 4
  ret i32 %24
}

; Function Attrs: nounwind uwtable
define i32 @ARKodeGetLinWorkSpace(ptr noundef %0, ptr noundef %1, ptr noundef %2) #0 {
  %4 = alloca i32, align 4
  %5 = alloca ptr, align 8
  %6 = alloca ptr, align 8
  %7 = alloca ptr, align 8
  %8 = alloca ptr, align 8
  %9 = alloca ptr, align 8
  %10 = alloca i64, align 8
  %11 = alloca i64, align 8
  %12 = alloca i64, align 8
  %13 = alloca i64, align 8
  %14 = alloca i32, align 4
  %15 = alloca i32, align 4
  store ptr %0, ptr %5, align 8, !tbaa !3
  store ptr %1, ptr %6, align 8, !tbaa !165
  store ptr %2, ptr %7, align 8, !tbaa !165
  call void @llvm.lifetime.start.p0(i64 8, ptr %8) #7
  call void @llvm.lifetime.start.p0(i64 8, ptr %9) #7
  call void @llvm.lifetime.start.p0(i64 8, ptr %10) #7
  call void @llvm.lifetime.start.p0(i64 8, ptr %11) #7
  call void @llvm.lifetime.start.p0(i64 8, ptr %12) #7
  call void @llvm.lifetime.start.p0(i64 8, ptr %13) #7
  call void @llvm.lifetime.start.p0(i64 4, ptr %14) #7
  %16 = load ptr, ptr %5, align 8, !tbaa !3
  %17 = icmp eq ptr %16, null
  br i1 %17, label %18, label %19

18:                                               ; preds = %3
  call void (ptr, i32, i32, ptr, ptr, ptr, ...) @arkProcessError(ptr noundef null, i32 noundef -21, i32 noundef 1166, ptr noundef @__func__.ARKodeGetLinWorkSpace, ptr noundef @.str, ptr noundef @.str.1)
  store i32 -21, ptr %4, align 4
  store i32 1, ptr %15, align 4
  br label %119

19:                                               ; preds = %3
  %20 = load ptr, ptr %5, align 8, !tbaa !3
  store ptr %20, ptr %8, align 8, !tbaa !11
  %21 = load ptr, ptr %8, align 8, !tbaa !11
  %22 = getelementptr inbounds nuw %struct.ARKodeMemRec, ptr %21, i32 0, i32 39
  %23 = load i32, ptr %22, align 8, !tbaa !13
  %24 = icmp ne i32 %23, 0
  br i1 %24, label %28, label %25

25:                                               ; preds = %19
  %26 = load ptr, ptr %7, align 8, !tbaa !165
  store i64 0, ptr %26, align 8, !tbaa !117
  %27 = load ptr, ptr %6, align 8, !tbaa !165
  store i64 0, ptr %27, align 8, !tbaa !117
  store i32 0, ptr %4, align 4
  store i32 1, ptr %15, align 4
  br label %119

28:                                               ; preds = %19
  %29 = load ptr, ptr %8, align 8, !tbaa !11
  %30 = call i32 @arkLs_AccessLMem(ptr noundef %29, ptr noundef @__func__.ARKodeGetLinWorkSpace, ptr noundef %9)
  store i32 %30, ptr %14, align 4, !tbaa !30
  %31 = load i32, ptr %14, align 4, !tbaa !30
  %32 = icmp ne i32 %31, 0
  br i1 %32, label %33, label %35

33:                                               ; preds = %28
  %34 = load i32, ptr %14, align 4, !tbaa !30
  store i32 %34, ptr %4, align 4
  store i32 1, ptr %15, align 4
  br label %119

35:                                               ; preds = %28
  %36 = load ptr, ptr %6, align 8, !tbaa !165
  store i64 3, ptr %36, align 8, !tbaa !117
  %37 = load ptr, ptr %7, align 8, !tbaa !165
  store i64 30, ptr %37, align 8, !tbaa !117
  %38 = load ptr, ptr %9, align 8, !tbaa !44
  %39 = getelementptr inbounds nuw %struct.ARKLsMemRec, ptr %38, i32 0, i32 13
  %40 = load ptr, ptr %39, align 8, !tbaa !76
  %41 = getelementptr inbounds nuw %struct._generic_N_Vector, ptr %40, i32 0, i32 1
  %42 = load ptr, ptr %41, align 8, !tbaa !32
  %43 = getelementptr inbounds nuw %struct._generic_N_Vector_Ops, ptr %42, i32 0, i32 4
  %44 = load ptr, ptr %43, align 8, !tbaa !167
  %45 = icmp ne ptr %44, null
  br i1 %45, label %46, label %60

46:                                               ; preds = %35
  %47 = load ptr, ptr %9, align 8, !tbaa !44
  %48 = getelementptr inbounds nuw %struct.ARKLsMemRec, ptr %47, i32 0, i32 13
  %49 = load ptr, ptr %48, align 8, !tbaa !76
  call void @N_VSpace(ptr noundef %49, ptr noundef %10, ptr noundef %11)
  %50 = load i64, ptr %10, align 8, !tbaa !117
  %51 = mul nsw i64 2, %50
  %52 = load ptr, ptr %6, align 8, !tbaa !165
  %53 = load i64, ptr %52, align 8, !tbaa !117
  %54 = add nsw i64 %53, %51
  store i64 %54, ptr %52, align 8, !tbaa !117
  %55 = load i64, ptr %11, align 8, !tbaa !117
  %56 = mul nsw i64 2, %55
  %57 = load ptr, ptr %7, align 8, !tbaa !165
  %58 = load i64, ptr %57, align 8, !tbaa !117
  %59 = add nsw i64 %58, %56
  store i64 %59, ptr %57, align 8, !tbaa !117
  br label %60

60:                                               ; preds = %46, %35
  %61 = load ptr, ptr %9, align 8, !tbaa !44
  %62 = getelementptr inbounds nuw %struct.ARKLsMemRec, ptr %61, i32 0, i32 11
  %63 = load ptr, ptr %62, align 8, !tbaa !72
  %64 = icmp ne ptr %63, null
  br i1 %64, label %65, label %92

65:                                               ; preds = %60
  %66 = load ptr, ptr %9, align 8, !tbaa !44
  %67 = getelementptr inbounds nuw %struct.ARKLsMemRec, ptr %66, i32 0, i32 11
  %68 = load ptr, ptr %67, align 8, !tbaa !72
  %69 = getelementptr inbounds nuw %struct._generic_SUNMatrix, ptr %68, i32 0, i32 1
  %70 = load ptr, ptr %69, align 8, !tbaa !103
  %71 = getelementptr inbounds nuw %struct._generic_SUNMatrix_Ops, ptr %70, i32 0, i32 9
  %72 = load ptr, ptr %71, align 8, !tbaa !168
  %73 = icmp ne ptr %72, null
  br i1 %73, label %74, label %91

74:                                               ; preds = %65
  %75 = load ptr, ptr %9, align 8, !tbaa !44
  %76 = getelementptr inbounds nuw %struct.ARKLsMemRec, ptr %75, i32 0, i32 11
  %77 = load ptr, ptr %76, align 8, !tbaa !72
  %78 = call i32 @SUNMatSpace(ptr noundef %77, ptr noundef %12, ptr noundef %13)
  store i32 %78, ptr %14, align 4, !tbaa !30
  %79 = load i32, ptr %14, align 4, !tbaa !30
  %80 = icmp eq i32 %79, 0
  br i1 %80, label %81, label %90

81:                                               ; preds = %74
  %82 = load i64, ptr %12, align 8, !tbaa !117
  %83 = load ptr, ptr %6, align 8, !tbaa !165
  %84 = load i64, ptr %83, align 8, !tbaa !117
  %85 = add nsw i64 %84, %82
  store i64 %85, ptr %83, align 8, !tbaa !117
  %86 = load i64, ptr %13, align 8, !tbaa !117
  %87 = load ptr, ptr %7, align 8, !tbaa !165
  %88 = load i64, ptr %87, align 8, !tbaa !117
  %89 = add nsw i64 %88, %86
  store i64 %89, ptr %87, align 8, !tbaa !117
  br label %90

90:                                               ; preds = %81, %74
  br label %91

91:                                               ; preds = %90, %65
  br label %92

92:                                               ; preds = %91, %60
  %93 = load ptr, ptr %9, align 8, !tbaa !44
  %94 = getelementptr inbounds nuw %struct.ARKLsMemRec, ptr %93, i32 0, i32 9
  %95 = load ptr, ptr %94, align 8, !tbaa !46
  %96 = getelementptr inbounds nuw %struct._generic_SUNLinearSolver, ptr %95, i32 0, i32 1
  %97 = load ptr, ptr %96, align 8, !tbaa !24
  %98 = getelementptr inbounds nuw %struct._generic_SUNLinearSolver_Ops, ptr %97, i32 0, i32 12
  %99 = load ptr, ptr %98, align 8, !tbaa !169
  %100 = icmp ne ptr %99, null
  br i1 %100, label %101, label %118

101:                                              ; preds = %92
  %102 = load ptr, ptr %9, align 8, !tbaa !44
  %103 = getelementptr inbounds nuw %struct.ARKLsMemRec, ptr %102, i32 0, i32 9
  %104 = load ptr, ptr %103, align 8, !tbaa !46
  %105 = call i32 @SUNLinSolSpace(ptr noundef %104, ptr noundef %12, ptr noundef %13)
  store i32 %105, ptr %14, align 4, !tbaa !30
  %106 = load i32, ptr %14, align 4, !tbaa !30
  %107 = icmp eq i32 %106, 0
  br i1 %107, label %108, label %117

108:                                              ; preds = %101
  %109 = load i64, ptr %12, align 8, !tbaa !117
  %110 = load ptr, ptr %6, align 8, !tbaa !165
  %111 = load i64, ptr %110, align 8, !tbaa !117
  %112 = add nsw i64 %111, %109
  store i64 %112, ptr %110, align 8, !tbaa !117
  %113 = load i64, ptr %13, align 8, !tbaa !117
  %114 = load ptr, ptr %7, align 8, !tbaa !165
  %115 = load i64, ptr %114, align 8, !tbaa !117
  %116 = add nsw i64 %115, %113
  store i64 %116, ptr %114, align 8, !tbaa !117
  br label %117

117:                                              ; preds = %108, %101
  br label %118

118:                                              ; preds = %117, %92
  store i32 0, ptr %4, align 4
  store i32 1, ptr %15, align 4
  br label %119

119:                                              ; preds = %118, %33, %25, %18
  call void @llvm.lifetime.end.p0(i64 4, ptr %14) #7
  call void @llvm.lifetime.end.p0(i64 8, ptr %13) #7
  call void @llvm.lifetime.end.p0(i64 8, ptr %12) #7
  call void @llvm.lifetime.end.p0(i64 8, ptr %11) #7
  call void @llvm.lifetime.end.p0(i64 8, ptr %10) #7
  call void @llvm.lifetime.end.p0(i64 8, ptr %9) #7
  call void @llvm.lifetime.end.p0(i64 8, ptr %8) #7
  %120 = load i32, ptr %4, align 4
  ret i32 %120
}