; Function Attrs: nounwind uwtable
define range(i32 -21, 1) i32 @ARKodeGetLinWorkSpace(ptr noundef %0, ptr noundef captures(none) %1, ptr noundef captures(none) %2) local_unnamed_addr #0 {
  %4 = alloca i64, align 8
  %5 = alloca i64, align 8
  %6 = alloca i64, align 8
  %7 = alloca i64, align 8
  call void @llvm.lifetime.start.p0(i64 8, ptr nonnull %4) #13
  call void @llvm.lifetime.start.p0(i64 8, ptr nonnull %5) #13
  call void @llvm.lifetime.start.p0(i64 8, ptr nonnull %6) #13
  call void @llvm.lifetime.start.p0(i64 8, ptr nonnull %7) #13
  %8 = icmp eq ptr %0, null
  br i1 %8, label %9, label %10

9:                                                ; preds = %3
  tail call void (ptr, i32, i32, ptr, ptr, ptr, ...) @arkProcessError(ptr noundef null, i32 noundef -21, i32 noundef 1166, ptr noundef nonnull @__func__.ARKodeGetLinWorkSpace, ptr noundef nonnull @.str, ptr noundef nonnull @.str.1) #13
  br label %70

10:                                               ; preds = %3
  %11 = getelementptr inbounds nuw i8, ptr %0, i64 296
  %12 = load i32, ptr %11, align 8, !tbaa !3
  %.not = icmp eq i32 %12, 0
  br i1 %.not, label %13, label %14

13:                                               ; preds = %10
  store i64 0, ptr %2, align 8, !tbaa !146
  store i64 0, ptr %1, align 8, !tbaa !146
  br label %70

14:                                               ; preds = %10
  %15 = getelementptr inbounds nuw i8, ptr %0, i64 320
  %16 = load ptr, ptr %15, align 8, !tbaa !33
  %17 = tail call ptr %16(ptr noundef nonnull %0) #13
  %18 = icmp eq ptr %17, null
  br i1 %18, label %arkLs_AccessLMem.exit, label %19

arkLs_AccessLMem.exit:                            ; preds = %14
  tail call void (ptr, i32, i32, ptr, ptr, ptr, ...) @arkProcessError(ptr noundef nonnull %0, i32 noundef -2, i32 noundef 4072, ptr noundef nonnull @__func__.ARKodeGetLinWorkSpace, ptr noundef nonnull @.str, ptr noundef nonnull @.str.64) #13
  br label %70

19:                                               ; preds = %14
  store i64 3, ptr %1, align 8, !tbaa !146
  store i64 30, ptr %2, align 8, !tbaa !146
  %20 = getelementptr inbounds nuw i8, ptr %17, i64 88
  %21 = load ptr, ptr %20, align 8, !tbaa !66
  %22 = getelementptr inbounds nuw i8, ptr %21, i64 8
  %23 = load ptr, ptr %22, align 8, !tbaa !24
  %24 = getelementptr inbounds nuw i8, ptr %23, i64 32
  %25 = load ptr, ptr %24, align 8, !tbaa !147
  %.not22 = icmp eq ptr %25, null
  br i1 %.not22, label %35, label %26

26:                                               ; preds = %19
  call void @N_VSpace(ptr noundef nonnull %21, ptr noundef nonnull %4, ptr noundef nonnull %5) #13
  %27 = load i64, ptr %4, align 8, !tbaa !146
  %28 = shl nsw i64 %27, 1
  %29 = load i64, ptr %1, align 8, !tbaa !146
  %30 = add nsw i64 %29, %28
  store i64 %30, ptr %1, align 8, !tbaa !146
  %31 = load i64, ptr %5, align 8, !tbaa !146
  %32 = shl nsw i64 %31, 1
  %33 = load i64, ptr %2, align 8, !tbaa !146
  %34 = add nsw i64 %33, %32
  store i64 %34, ptr %2, align 8, !tbaa !146
  br label %35

35:                                               ; preds = %26, %19
  %36 = getelementptr inbounds nuw i8, ptr %17, i64 72
  %37 = load ptr, ptr %36, align 8, !tbaa !61
  %.not23 = icmp eq ptr %37, null
  br i1 %.not23, label %53, label %38

38:                                               ; preds = %35
  %39 = getelementptr inbounds nuw i8, ptr %37, i64 8
  %40 = load ptr, ptr %39, align 8, !tbaa !81
  %41 = getelementptr inbounds nuw i8, ptr %40, i64 72
  %42 = load ptr, ptr %41, align 8, !tbaa !148
  %.not24 = icmp eq ptr %42, null
  br i1 %.not24, label %53, label %43

43:                                               ; preds = %38
  %44 = call i32 @SUNMatSpace(ptr noundef nonnull %37, ptr noundef nonnull %6, ptr noundef nonnull %7) #13
  %45 = icmp eq i32 %44, 0
  br i1 %45, label %46, label %53

46:                                               ; preds = %43
  %47 = load i64, ptr %6, align 8, !tbaa !146
  %48 = load i64, ptr %1, align 8, !tbaa !146
  %49 = add nsw i64 %48, %47
  store i64 %49, ptr %1, align 8, !tbaa !146
  %50 = load i64, ptr %7, align 8, !tbaa !146
  %51 = load i64, ptr %2, align 8, !tbaa !146
  %52 = add nsw i64 %51, %50
  store i64 %52, ptr %2, align 8, !tbaa !146
  br label %53

53:                                               ; preds = %38, %46, %43, %35
  %54 = getelementptr inbounds nuw i8, ptr %17, i64 56
  %55 = load ptr, ptr %54, align 8, !tbaa !36
  %56 = getelementptr inbounds nuw i8, ptr %55, i64 8
  %57 = load ptr, ptr %56, align 8, !tbaa !17
  %58 = getelementptr inbounds nuw i8, ptr %57, i64 96
  %59 = load ptr, ptr %58, align 8, !tbaa !149
  %.not25 = icmp eq ptr %59, null
  br i1 %.not25, label %70, label %60

60:                                               ; preds = %53
  %61 = call i32 @SUNLinSolSpace(ptr noundef nonnull %55, ptr noundef nonnull %6, ptr noundef nonnull %7) #13
  %62 = icmp eq i32 %61, 0
  br i1 %62, label %63, label %70

63:                                               ; preds = %60
  %64 = load i64, ptr %6, align 8, !tbaa !146
  %65 = load i64, ptr %1, align 8, !tbaa !146
  %66 = add nsw i64 %65, %64
  store i64 %66, ptr %1, align 8, !tbaa !146
  %67 = load i64, ptr %7, align 8, !tbaa !146
  %68 = load i64, ptr %2, align 8, !tbaa !146
  %69 = add nsw i64 %68, %67
  store i64 %69, ptr %2, align 8, !tbaa !146
  br label %70

70:                                               ; preds = %arkLs_AccessLMem.exit, %53, %63, %60, %13, %9
  %.0 = phi i32 [ -21, %9 ], [ 0, %13 ], [ -2, %arkLs_AccessLMem.exit ], [ 0, %60 ], [ 0, %63 ], [ 0, %53 ]
  call void @llvm.lifetime.end.p0(i64 8, ptr nonnull %7) #13
  call void @llvm.lifetime.end.p0(i64 8, ptr nonnull %6) #13
  call void @llvm.lifetime.end.p0(i64 8, ptr nonnull %5) #13
  call void @llvm.lifetime.end.p0(i64 8, ptr nonnull %4) #13
  ret i32 %.0
}